DebugLog
DebugLogFloat
DebugLogHex
DebugLogInt32
DebugLogUInt32
MicroSnprintf
MicroVsnprintf
_ZN12_GLOBAL__N_111FormatFloatEPcf
_ZN12_GLOBAL__N_111FormatInt32EPci
_ZN12_GLOBAL__N_111StrCatInt32EPcii
_ZN12_GLOBAL__N_111StrCatInt32EPcii
_ZN12_GLOBAL__N_112FormatUInt32EPcj
_ZN12_GLOBAL__N_112StrCatUInt32EPciji
_ZN12_GLOBAL__N_112StrCatUInt32EPciji
_ZN12_GLOBAL__N_120ReverseStringInPlaceEPcS0_
_ZN12_GLOBAL__N_120ReverseStringInPlaceEPcS0_
_ZN12_GLOBAL__N_121FastFloatToBufferLeftEfPc
_ZN12_GLOBAL__N_121FastFloatToBufferLeftEfPc
_ZN12_GLOBAL__N_121FastInt32ToBufferLeftEiPc
_ZN12_GLOBAL__N_121FastInt32ToBufferLeftEiPc
_ZN12_GLOBAL__N_122FastUInt32ToBufferLeftEjPci
_ZN12_GLOBAL__N_122FastUInt32ToBufferLeftEjPci
_ZN12_GLOBAL__N_19FormatHexEPcj
_ZN12_GLOBAL__N_19StrCatStrEPciPKc
_ZN12_GLOBAL__N_19StrCatStrEPciPKc
_ZN6tflite11AlignSizeUpEjj
_ZN6tflite11CheckedLog2EfPi
_ZN6tflite11ParseOpDataEPKNS_8OperatorENS_15BuiltinOperatorEPNS_13ErrorReporterEPNS_20BuiltinDataAllocatorEPPv
_ZN6tflite12ElementCountERK14TfLiteIntArray
_ZN6tflite12_GLOBAL__N_110CommitPlanEPNS_13ErrorReporterEPNS_13MemoryPlannerEPhPKNS0_14AllocationInfoEj
_ZN6tflite12_GLOBAL__N_110CreatePlanEPNS_13ErrorReporterEPNS_13MemoryPlannerEPKNS0_14AllocationInfoEj
_ZN6tflite12_GLOBAL__N_117AllocateVariablesEPKN11flatbuffers6VectorINS1_6OffsetINS_6TensorEEEEEP12TfLiteTensorPNS_21SimpleMemoryAllocatorE
_ZN6tflite12_GLOBAL__N_118UnresolvedOpInvokeEP13TfLiteContextP10TfLiteNode
_ZN6tflite12_GLOBAL__N_121AllocationInfoBuilder10AddTensorsEPKNS_8SubGraphEP12TfLiteTensor
_ZN6tflite12_GLOBAL__N_121AllocationInfoBuilder17AddScratchBuffersEPNS_8internal19ScratchBufferHandleE
_ZN6tflite12_GLOBAL__N_121AllocationInfoBuilder8AllocateEv
_ZN6tflite12_GLOBAL__N_122OpNameFromRegistrationEPK18TfLiteRegistration
_ZN6tflite12_GLOBAL__N_125MicroBuiltinDataAllocator10DeallocateEPv
_ZN6tflite12_GLOBAL__N_125MicroBuiltinDataAllocator8AllocateEj
_ZN6tflite12_GLOBAL__N_125MicroBuiltinDataAllocatorD0Ev
_ZN6tflite12_GLOBAL__N_125MicroBuiltinDataAllocatorD1Ev
_ZN6tflite12_GLOBAL__N_125MicroBuiltinDataAllocatorD2Ev
_ZN6tflite12_GLOBAL__N_126FlatBufferIntVectorToArrayEiPKN11flatbuffers6VectorIiEEPiPNS_13ErrorReporterEPKc
_ZN6tflite12_GLOBAL__N_137CalculateActivationRangeQuantizedImplE21TfLiteFusedActivationiiP12TfLiteTensorPiS4_
_ZN6tflite12IntegerFrExpEdPi
_ZN6tflite13CombineHashesESt16initializer_listIjE
_ZN6tflite13ErrorReporter11ReportErrorEPvPKcz
_ZN6tflite13ErrorReporter6ReportEPKcz
_ZN6tflite13GetSizeOfTypeEP13TfLiteContext10TfLiteTypePj
_ZN6tflite14AlignPointerUpEPhj
_ZN6tflite14HaveSameShapesEPK12TfLiteTensorS2_
_ZN6tflite14MicroAllocator22FinishTensorAllocationEv
_ZN6tflite14MicroAllocator24AllocatePersistentBufferEjPPv
_ZN6tflite14MicroAllocator27RequestScratchBufferInArenaEijPi
_ZN6tflite14MicroAllocator28AllocateNodeAndRegistrationsERKNS_10OpResolverEPPNS_19NodeAndRegistrationE
_ZN6tflite14MicroAllocator4InitEv
_ZN6tflite14MicroAllocatorC1EP13TfLiteContextPKNS_5ModelEPhjPNS_13ErrorReporterE
_ZN6tflite14MicroAllocatorC2EP13TfLiteContextPKNS_5ModelEPhjPNS_13ErrorReporterE
_ZN6tflite14StderrReporter6ReportEPKc13__va_list_tag
_ZN6tflite16AlignPointerDownEPhj
_ZN6tflite16logging_internal13MinimalLogger12LogFormattedENS_11LogSeverityEPKc13__va_list_tag
_ZN6tflite16logging_internal13MinimalLogger15GetSeverityNameENS_11LogSeverityE
_ZN6tflite16logging_internal13MinimalLogger3LogENS_11LogSeverityEPKcz
_ZN6tflite16MicroInterpreter15AllocateTensorsEv
_ZN6tflite16MicroInterpreter20ResetVariableTensorsEv
_ZN6tflite16MicroInterpreter23CorrectTensorEndiannessEP12TfLiteTensor
_ZN6tflite16MicroInterpreter5inputEj
_ZN6tflite16MicroInterpreter6InvokeEv
_ZN6tflite16MicroInterpreter6outputEj
_ZN6tflite16MicroInterpreter6tensorEj
_ZN6tflite16MicroInterpreterC1EPKNS_5ModelERKNS_10OpResolverEPhjPNS_13ErrorReporterE
_ZN6tflite16MicroInterpreterC2EPKNS_5ModelERKNS_10OpResolverEPhjPNS_13ErrorReporterE
_ZN6tflite16MicroInterpreterD1Ev
_ZN6tflite16MicroInterpreterD2Ev
_ZN6tflite16TfLiteTypeSizeOfE10TfLiteTypePjPNS_13ErrorReporterE
_ZN6tflite17ConvertTensorTypeENS_10TensorTypeEP10TfLiteTypePNS_13ErrorReporterE
_ZN6tflite17FakeQuantizeArrayEfffPKfPff
_ZN6tflite17MutableOpResolver10AddBuiltinENS_15BuiltinOperatorEPK18TfLiteRegistrationii
_ZN6tflite17MutableOpResolver6AddAllERKS0_
_ZN6tflite17MutableOpResolver9AddCustomEPKcPK18TfLiteRegistrationii
_ZN6tflite17SymmetricQuantizeEPKfP14TfLiteIntArrayPhPf
_ZN6tflite17SymmetricQuantizeEPKfPiif
_ZN6tflite18AsymmetricQuantizeEPKfPaifi
_ZN6tflite18AsymmetricQuantizeEPKfPhifi
_ZN6tflite18AsymmetricQuantizeEPKfPsifi
_ZN6tflite18MicroErrorReporter6ReportEPKc13__va_list_tag
_ZN6tflite18QuantizeMultiplierEdPiS0_
_ZN6tflite18ReverseSortInPlaceEPiS0_i
_ZN6tflite19GreedyMemoryPlanner14GetBufferCountEv
_ZN6tflite19GreedyMemoryPlanner15PrintMemoryPlanEPNS_13ErrorReporterE
_ZN6tflite19GreedyMemoryPlanner18GetOffsetForBufferEPNS_13ErrorReporterEiPi
_ZN6tflite19GreedyMemoryPlanner19DoAnyBuffersOverlapEPNS_13ErrorReporterE
_ZN6tflite19GreedyMemoryPlanner20GetMaximumMemorySizeEv
_ZN6tflite19GreedyMemoryPlanner24CalculateOffsetsIfNeededEv
_ZN6tflite19GreedyMemoryPlanner30NextSimultaneouslyActiveBufferEPKNS0_9ListEntryEii
_ZN6tflite19GreedyMemoryPlanner9AddBufferEPNS_13ErrorReporterEiii
_ZN6tflite19GreedyMemoryPlannerC1EPhi
_ZN6tflite19GreedyMemoryPlannerC2EPhi
_ZN6tflite19GreedyMemoryPlannerD0Ev
_ZN6tflite19GreedyMemoryPlannerD1Ev
_ZN6tflite19GreedyMemoryPlannerD2Ev
_ZN6tflite19ResetVariableTensorEP12TfLiteTensor
_ZN6tflite19SymmetricDequantizeEPKaifPf
_ZN6tflite20CalculateInputRadiusEiii
_ZN6tflite20DefaultErrorReporterEv
_ZN6tflite20IntegerDoubleCompareEdd
_ZN6tflite20IsUnresolvedCustomOpERK18TfLiteRegistration
_ZN6tflite21IntegerDoubleMultiplyEdd
_ZN6tflite21SimpleMemoryAllocator16AllocateFromTailEjj
_ZN6tflite21SimpleMemoryAllocator20CreateChildAllocatorEv
_ZN6tflite21SimpleMemoryAllocatorD1Ev
_ZN6tflite21SimpleMemoryAllocatorD2Ev
_ZN6tflite22BytesRequiredForTensorERKNS_6TensorEPjS3_PNS_13ErrorReporterE
_ZN6tflite22NudgeQuantizationRangeEffiiPfS0_S0_
_ZN6tflite23QuantizeMultiplierArrayEPKdjPiS2_
_ZN6tflite23SignedSymmetricQuantizeEPKfP14TfLiteIntArrayPaPf
_ZN6tflite23SignedSymmetricQuantizeEPKfP14TfLiteIntArrayPiPf
_ZN6tflite23SignedSymmetricQuantizeEPKfP14TfLiteIntArrayPsPf
_ZN6tflite24CreateUnresolvedCustomOpEPKc
_ZN6tflite24PreprocessSoftmaxScalingEddiPiS0_
_ZN6tflite25GetRegistrationFromOpCodeEPKNS_12OperatorCodeERKNS_10OpResolverEPNS_13ErrorReporterEPPK18TfLiteRegistration
_ZN6tflite26CalculateShapeForBroadcastEP13TfLiteContextPK12TfLiteTensorS4_PP14TfLiteIntArray
_ZN6tflite26CalculateShapeForBroadcastEP13TfLiteContextPK12TfLiteTensorS4_S4_PP14TfLiteIntArray
_ZN6tflite26DoubleFromFractionAndShiftExi
_ZN6tflite27EqualArrayAndTfLiteIntArrayEPK14TfLiteIntArrayiPKi
_ZN6tflite27SymmetricPerChannelQuantizeEPKfPiiiPf
_ZN6tflite28ConvertArrayToTfLiteIntArrayEiPKi
_ZN6tflite29ConvertVectorToTfLiteIntArrayERKSt6vectorIiSaIiEE
_ZN6tflite29FloatToSymmetricQuantizedInt8Eff
_ZN6tflite30FloatToAsymmetricQuantizedInt8Effi
_ZN6tflite30FloatToSymmetricQuantizedInt32Eff
_ZN6tflite30FloatToSymmetricQuantizedUInt8Eff
_ZN6tflite30PreprocessLogSoftmaxScalingExpEddiPiS0_S0_S0_
_ZN6tflite31FloatToAsymmetricQuantizedInt16Effi
_ZN6tflite31FloatToAsymmetricQuantizedUInt8Effi
_ZN6tflite32GetQuantizedConvolutionMultiplerEP13TfLiteContextPK12TfLiteTensorS4_PS2_Pd
_ZN6tflite32GetQuantizedConvolutionMultiplerEP13TfLiteContextPK12TfLiteTensorS4_S4_PS2_Pd
_ZN6tflite32QuantizeMultiplierGreaterThanOneEdPiS0_
_ZN6tflite33CalculateActivationRangeQuantizedEP13TfLiteContext21TfLiteFusedActivationP12TfLiteTensorPiS5_
_ZN6tflite33SignedSymmetricPerChannelQuantizeEPKfP14TfLiteIntArrayiPaPf
_ZN6tflite34CreateInPlaceSimpleMemoryAllocatorEPhj
_ZN6tflite35QuantizeMultiplierSmallerThanOneExpEdPiS0_
_ZN6tflite37PopulateConvolutionQuantizationParamsEP13TfLiteContextPK12TfLiteTensorS4_S4_PS2_RK21TfLiteFusedActivationPiS9_S9_S9_S9_S9_
_ZN6tflite37PopulateConvolutionQuantizationParamsEP13TfLiteContextPK12TfLiteTensorS4_S4_PS2_RK21TfLiteFusedActivationPiS9_S9_S9_S9_S9_i
_ZN6tflite3ops5micro11activations11ReluPrepareEP13TfLiteContextP10TfLiteNode
_ZN6tflite3ops5micro11activations11SoftmaxEvalEP13TfLiteContextP10TfLiteNode
_ZN6tflite3ops5micro11activations12_GLOBAL__N_122CalculateSoftmaxParamsEP13TfLiteContextPK12TfLiteTensorPS6_PK19TfLiteSoftmaxParamsPNS_13SoftmaxParamsE
_ZN6tflite3ops5micro11activations12Relu6PrepareEP13TfLiteContextP10TfLiteNode
_ZN6tflite3ops5micro11activations12SoftmaxFloatEP13TfLiteContextPK12TfLiteTensorPS5_RKNS_13SoftmaxParamsE
_ZN6tflite3ops5micro11activations14SoftmaxPrepareEP13TfLiteContextP10TfLiteNode
_ZN6tflite3ops5micro11activations16SoftmaxQuantizedEP13TfLiteContextPK12TfLiteTensorPS5_RKNS_13SoftmaxParamsE
_ZN6tflite3ops5micro11activations4EvalEP13TfLiteContextP10TfLiteNode
_ZN6tflite3ops5micro11activations8ReluEvalEP13TfLiteContextP10TfLiteNode
_ZN6tflite3ops5micro11activations9Relu6EvalEP13TfLiteContextP10TfLiteNode
_ZN6tflite3ops5micro13Register_RELUEv
_ZN6tflite3ops5micro14depthwise_conv12_GLOBAL__N_115CalculateOpDataEP13TfLiteContextP10TfLiteNodeP25TfLiteDepthwiseConvParamsiiii10TfLiteTypePNS3_6OpDataE
_ZN6tflite3ops5micro14depthwise_conv13EvalQuantizedEP13TfLiteContextP10TfLiteNodeP25TfLiteDepthwiseConvParamsPNS2_12_GLOBAL__N_16OpDataEPK12TfLiteTensorSE_SE_PSC_
_ZN6tflite3ops5micro14depthwise_conv23EvalQuantizedPerChannelEP13TfLiteContextP10TfLiteNodeP25TfLiteDepthwiseConvParamsPNS2_12_GLOBAL__N_16OpDataEPK12TfLiteTensorSE_SE_PSC_
_ZN6tflite3ops5micro14depthwise_conv4EvalEP13TfLiteContextP10TfLiteNode
_ZN6tflite3ops5micro14depthwise_conv9EvalFloatEP13TfLiteContextP10TfLiteNodeP25TfLiteDepthwiseConvParamsPNS2_12_GLOBAL__N_16OpDataEPK12TfLiteTensorSE_SE_PSC_
_ZN6tflite3ops5micro14Register_FLOOREv
_ZN6tflite3ops5micro14Register_RELU6Ev
_ZN6tflite3ops5micro15fully_connected12_GLOBAL__N_115CalculateOpDataEP13TfLiteContextP26TfLiteFullyConnectedParams10TfLiteTypePK12TfLiteTensorSB_SB_PS9_PNS3_6OpDataE
_ZN6tflite3ops5micro15fully_connected13EvalQuantizedEP13TfLiteContextP10TfLiteNodeP26TfLiteFullyConnectedParamsPNS2_12_GLOBAL__N_16OpDataEPK12TfLiteTensorSE_SE_PSC_
_ZN6tflite3ops5micro15fully_connected17EvalQuantizedInt8EP13TfLiteContextP10TfLiteNodeP26TfLiteFullyConnectedParamsPNS2_12_GLOBAL__N_16OpDataEPK12TfLiteTensorSE_SE_PSC_
_ZN6tflite3ops5micro15fully_connected4EvalEP13TfLiteContextP10TfLiteNode
_ZN6tflite3ops5micro15fully_connected9EvalFloatEP13TfLiteContextP10TfLiteNodeP26TfLiteFullyConnectedParamsPNS2_12_GLOBAL__N_16OpDataEPK12TfLiteTensorSE_SE_PSC_
_ZN6tflite3ops5micro16Register_CONV_2DEv
_ZN6tflite3ops5micro16Register_SOFTMAXEv
_ZN6tflite3ops5micro17Register_LOGISTICEv
_ZN6tflite3ops5micro20Register_MAX_POOL_2DEv
_ZN6tflite3ops5micro24Register_AVERAGE_POOL_2DEv
_ZN6tflite3ops5micro24Register_FULLY_CONNECTEDEv
_ZN6tflite3ops5micro26Register_DEPTHWISE_CONV_2DEv
_ZN6tflite3ops5micro4conv13EvalQuantizedEP13TfLiteContextP10TfLiteNodeP16TfLiteConvParamsPNS2_6OpDataEPK12TfLiteTensorSD_SD_PSB_SE_SE_
_ZN6tflite3ops5micro4conv15CalculateOpDataEP13TfLiteContextP10TfLiteNodeP16TfLiteConvParamsiiiiii10TfLiteTypePNS2_6OpDataE
_ZN6tflite3ops5micro4conv23EvalQuantizedPerChannelEP13TfLiteContextP10TfLiteNodeP16TfLiteConvParamsPNS2_6OpDataEPK12TfLiteTensorSD_SD_PSB_SE_
_ZN6tflite3ops5micro4conv4EvalEP13TfLiteContextP10TfLiteNode
_ZN6tflite3ops5micro4conv9EvalFloatEP13TfLiteContextP10TfLiteNodeP16TfLiteConvParamsPNS2_6OpDataEPK12TfLiteTensorSD_SD_PSB_SE_SE_
_ZN6tflite3ops5micro5floor4EvalEP13TfLiteContextP10TfLiteNode
_ZN6tflite3ops5micro7pooling11AverageEvalEP13TfLiteContextP10TfLiteNode
_ZN6tflite3ops5micro7pooling12_GLOBAL__N_112MaxEvalFloatEP13TfLiteContextP10TfLiteNodeP16TfLitePoolParamsPNS3_6OpDataEPK12TfLiteTensorPSC_
_ZN6tflite3ops5micro7pooling12_GLOBAL__N_115CalculateOpDataEPK13TfLiteContextPK16TfLitePoolParamsPK12TfLiteTensorSC_PNS3_6OpDataE
_ZN6tflite3ops5micro7pooling12_GLOBAL__N_116AverageEvalFloatEP13TfLiteContextPK10TfLiteNodePK16TfLitePoolParamsPKNS3_6OpDataEPK12TfLiteTensorPSF_
_ZN6tflite3ops5micro7pooling12_GLOBAL__N_116MaxEvalQuantizedEP13TfLiteContextP10TfLiteNodeP16TfLitePoolParamsPNS3_6OpDataEPK12TfLiteTensorPSC_
_ZN6tflite3ops5micro7pooling12_GLOBAL__N_120AverageEvalQuantizedEP13TfLiteContextPK10TfLiteNodePK16TfLitePoolParamsPKNS3_6OpDataEPK12TfLiteTensorPSF_
_ZN6tflite3ops5micro7pooling7MaxEvalEP13TfLiteContextP10TfLiteNode
_ZN6tflite8internal13ContextHelper13ReportOpErrorEP13TfLiteContextPKcz
_ZN6tflite8internal13ContextHelper16GetScratchBufferEP13TfLiteContexti
_ZN6tflite8internal13ContextHelper24AllocatePersistentBufferEP13TfLiteContextjPPv
_ZN6tflite8internal13ContextHelper27RequestScratchBufferInArenaEP13TfLiteContextjPi
_ZN6tflite8internal23InitializeRuntimeTensorEPNS_21SimpleMemoryAllocatorERKNS_6TensorEPKN11flatbuffers6VectorINS6_6OffsetINS_6BufferEEEEEPNS_13ErrorReporterEP12TfLiteTensor
_ZN6tflite8IsFlexOpEPKc
_ZNK6tflite14MicroAllocator16GetScratchBufferEi
_ZNK6tflite17MutableOpResolver6FindOpENS_15BuiltinOperatorEi
_ZNK6tflite17MutableOpResolver6FindOpEPKci
_ZNK6tflite19GreedyMemoryPlanner22DoesEntryOverlapInTimeEPKNS0_9ListEntryEii
_ZTIN6tflite10OpResolverE
_ZTIN6tflite13ErrorReporterE
_ZTIN6tflite13MemoryPlannerE
_ZTIN6tflite14StderrReporterE
_ZTIN6tflite17MutableOpResolverE
_ZTIN6tflite18MicroErrorReporterE
_ZTIN6tflite19GreedyMemoryPlannerE
_ZTIN6tflite20BuiltinDataAllocatorE
_ZTISt14error_category
_ZTSN6tflite10OpResolverE
_ZTSN6tflite13ErrorReporterE
_ZTSN6tflite13MemoryPlannerE
_ZTSN6tflite14StderrReporterE
_ZTSN6tflite17MutableOpResolverE
_ZTSN6tflite18MicroErrorReporterE
_ZTSN6tflite19GreedyMemoryPlannerE
_ZTSN6tflite20BuiltinDataAllocatorE
_ZTSSt14error_category
_ZTVN6tflite10OpResolverE
_ZTVN6tflite12_GLOBAL__N_125MicroBuiltinDataAllocatorE_390
_ZTVN6tflite13ErrorReporterE
_ZTVN6tflite13MemoryPlannerE
_ZTVN6tflite14StderrReporterE
_ZTVN6tflite17MutableOpResolverE
_ZTVN6tflite18MicroErrorReporterE
_ZTVN6tflite19GreedyMemoryPlannerE
_ZTVN6tflite20BuiltinDataAllocatorE
_ZTVSt14error_category
_ZZN6tflite24EnumNamesBuiltinOperatorEvE5names..1
