
_ZN7android2nn13LSHProjection4EvalEv
_ZN7android2nn13LSHProjection7PrepareERKNS_8hardware14neuralnetworks4V1_19OperationERSt6vectorINS0_18RunTimeOperandInfoESaIS9_EEPNS0_5ShapeE
_ZN7android2nn13LSHProjectionC1ERKNS_8hardware14neuralnetworks4V1_19OperationERSt6vectorINS0_18RunTimeOperandInfoESaIS9_EE
_ZN7android2nn13LSHProjectionC2ERKNS_8hardware14neuralnetworks4V1_19OperationERSt6vectorINS0_18RunTimeOperandInfoESaIS9_EE
_ZN7android2nn18DenseLshProjectionEPKNS0_18RunTimeOperandInfoES3_S3_Pi
_ZN7android2nn19SparseLshProjectionEPKNS0_18RunTimeOperandInfoES3_S3_Pi

_ZN7android2nn16alignBytesNeededEjj

_ZN7android2nn10sizeOfDataENS_8hardware14neuralnetworks4V1_011OperandTypeERKSt6vectorIjSaIjEE
_ZN7android2nn10sizeOfDataENS_8hardware14neuralnetworks4V1_011OperandTypeERKSt6vectorIjSaIjEE
_ZN7android2nn16transposeGenericEPKhRKNS0_5ShapeEPKiS5_PhS5_
_ZN7android2nn19spaceToBatchPrepareERKNS0_5ShapeEPKiS3_S5_S3_PS1_
_ZN7android2nn19spaceToBatchGenericEPKhRKNS0_5ShapeEPKiS7_S5_PhS5_
_ZN7android2nn15HashtableLookup4EvalEv
_ZN7android2nn15HashtableLookupC1ERKNS_8hardware14neuralnetworks4V1_19OperationERSt6vectorINS0_18RunTimeOperandInfoESaIS9_EE
_ZN7android2nn22hashtableLookupPrepareERKNS0_5ShapeES3_S3_PS1_S4_
_ZN7android2nn19depthToSpacePrepareERKNS0_5ShapeEiPS1_
_ZN7android2nn19depthToSpaceGenericEPKhRKNS0_5ShapeEiPhS5_
_ZN7android2nn19batchToSpacePrepareERKNS0_5ShapeEPKiS3_PS1_
_ZN7android2nn19batchToSpaceGenericEPKhRKNS0_5ShapeEPKiPhS5_
_ZN7android2nn19stridedSlicePrepareERKNS0_5ShapeEPKiS3_S5_S3_S5_S3_iiiPS1_
_ZN7android2nn19stridedSliceGenericEPKhRKNS0_5ShapeEPKiS7_S7_iiiPhS5_
_ZN7android2nn3RNN4EvalEv
_ZN7android2nn3RNN7PrepareERKNS_8hardware14neuralnetworks4V1_19OperationERSt6vectorINS0_18RunTimeOperandInfoESaIS9_EEPNS0_5ShapeESE_
_ZN7android2nn3RNNC1ERKNS_8hardware14neuralnetworks4V1_19OperationERSt6vectorINS0_18RunTimeOperandInfoESaIS9_EE
_ZN7android2nn16transposePrepareERKNS0_5ShapeEPKiS3_PS1_
_ZN7android2nn14squeezePrepareERKNS0_5ShapeEPKiS3_PS1_
_ZN7android2nn14squeezeGenericEPKvRKNS0_5ShapeEPvS5_
_ZN7android2nn19getNumberOfElementsERKNS0_5ShapeE
_ZN7android2nn14reshapePrepareERKNS0_5ShapeEPKiiPS1_
_ZN7android2nn14reshapeGenericEPKvRKNS0_5ShapeEPvS5_
_ZN7android2nn15EmbeddingLookup4EvalEv
_ZN7android2nn15EmbeddingLookupC1ERKNS_8hardware14neuralnetworks4V1_19OperationERSt6vectorINS0_18RunTimeOperandInfoESaIS9_EE
_ZN7android2nn22embeddingLookupPrepareERKNS0_5ShapeES3_PS1_
_ZN7android2nn10padPrepareERKNS0_5ShapeEPKiS3_PS1_
_ZN7android2nn10padGenericEPKhRKNS0_5ShapeEPKiPhS5_
_ZN7android2nn11meanPrepareERKNS0_5ShapeEPKiS3_bPS1_
_ZN7android2nn11meanGenericEPKhRKNS0_5ShapeEPKiS5_bPhS5_
_ZN7android2nn4SVDF4EvalEv
_ZN7android2nn4SVDF7PrepareERKNS_8hardware14neuralnetworks4V1_19OperationERSt6vectorINS0_18RunTimeOperandInfoESaIS9_EEPNS0_5ShapeESE_
_ZN7android2nn4SVDFC1ERKNS_8hardware14neuralnetworks4V1_19OperationERSt6vectorINS0_18RunTimeOperandInfoESaIS9_EE
_ZN7android2nn19spaceToDepthPrepareERKNS0_5ShapeEiPS1_
_ZN7android2nn19spaceToDepthGenericEPKhRKNS0_5ShapeEiPhS5_
_ZN7android2nn8LSTMCell4EvalEv
_ZN7android2nn8LSTMCell7PrepareERKNS_8hardware14neuralnetworks4V1_19OperationERSt6vectorINS0_18RunTimeOperandInfoESaIS9_EEPNS0_5ShapeESE_SE_SE_
_ZN7android2nn8LSTMCellC1ERKNS_8hardware14neuralnetworks4V1_19OperationERSt6vectorINS0_18RunTimeOperandInfoESaIS9_EE
_ZN7android2nn18getSizeOfDimensionERKNS0_5ShapeEj
_ZN7android2nn24genericActivationPrepareERKNS0_5ShapeEPS1_RKNS_8hardware14neuralnetworks4V1_19OperationERi
_ZN7android2nn11reluFloat32EPKfRKNS0_5ShapeEPfS5_
_ZN7android2nn10reluQuant8EPKhRKNS0_5ShapeEPhS5_
_ZN7android2nn21fullyConnectedPrepareERKNS0_5ShapeES3_S3_PS1_
_ZN7android2nn21fullyConnectedFloat32EPKfRKNS0_5ShapeES2_S5_S2_S5_iPfS5_
_ZN7android2nn20fullyConnectedQuant8EPKhRKNS0_5ShapeES2_S5_PKiS5_iPhS5_
_ZN7android2nn15logisticFloat32EPKfRKNS0_5ShapeEPfS5_
_ZN7android2nn14logisticQuant8EPKhRKNS0_5ShapeEPhS5_
_ZN7android2nn12relu6Float32EPKfRKNS0_5ShapeEPfS5_
_ZN7android2nn27genericNormalizationPrepareERKNS0_5ShapeEPS1_
_ZN7android2nn13l2normFloat32EPKfRKNS0_5ShapeEPfS5_
_ZN7android2nn17dequantizePrepareERKNS0_5ShapeEPS1_
_ZN7android2nn25dequantizeQuant8ToFloat32EPKhPfRKNS0_5ShapeE
_ZN7android2nn11relu6Quant8EPKhRKNS0_5ShapeEPhS5_
_ZN7android2nn12l2normQuant8EPKhRKNS0_5ShapeEPhS5_
_ZN7android2nn13addMulPrepareERKNS0_5ShapeES3_PS1_
_ZN7android2nn10subFloat32EPKfRKNS0_5ShapeES2_S5_iPfS5_
_ZN7android2nn21genericPoolingPrepareERKNS0_5ShapeEiiiiiiiiPS1_RKNS_8hardware14neuralnetworks4V1_19OperationERi
_ZN7android2nn18averagePoolFloat32EPKfRKNS0_5ShapeEiiiiiiiiiPfS5_Pv
_ZN7android2nn17averagePoolQuant8EPKhRKNS0_5ShapeEiiiiiiiiiPhS5_Pv
_ZN7android2nn21resizeBilinearPrepareERKNS0_5ShapeEiiPS1_
_ZN7android2nn21resizeBilinearFloat32EPKfRKNS0_5ShapeEPfS5_
_ZN7android2nn12relu1Float32EPKfRKNS0_5ShapeEPfS5_
_ZN7android2nn24localResponseNormFloat32EPKfRKNS0_5ShapeEifffPfS5_
_ZN7android2nn12floorPrepareERKNS0_5ShapeEPS1_
_ZN7android2nn12floorFloat32EPKfPfRKNS0_5ShapeE
_ZN7android2nn20depthwiseConvPrepareERKNS0_5ShapeES3_S3_iiiiiiPS1_Ri
_ZN7android2nn20depthwiseConvFloat32EPKfRKNS0_5ShapeES2_S5_S2_S5_iiiiiiiiPfS5_Pv
_ZN7android2nn11relu1Quant8EPKhRKNS0_5ShapeEPhS5_
_ZN7android2nn19depthwiseConvQuant8EPKhRKNS0_5ShapeES2_S5_PKiS5_iiiiiiiiPhS5_Pv
_ZN7android2nn10divFloat32EPKfRKNS0_5ShapeES2_S5_iPfS5_
_ZN7android2nn11tanhFloat32EPKfRKNS0_5ShapeEPfS5_
_ZN7android2nn10mulFloat32EPKfRKNS0_5ShapeES2_S5_iPfS5_
_ZN7android2nn9mulQuant8EPKhRKNS0_5ShapeES2_S5_iPhS5_
_ZN7android2nn10addFloat32EPKfRKNS0_5ShapeES2_S5_iPfS5_
_ZN7android2nn9addQuant8EPKhRKNS0_5ShapeES2_S5_iPhS5_
_ZN7android2nn14softmaxFloat32EPKfRKNS0_5ShapeEfPfS5_
_ZN7android2nn13l2PoolFloat32EPKfRKNS0_5ShapeEiiiiiiiiiPfS5_
_ZN7android2nn13softmaxQuant8EPKhRKNS0_5ShapeEfPhS5_Pv
_ZN7android2nn14maxPoolFloat32EPKfRKNS0_5ShapeEiiiiiiiiiPfS5_Pv
_ZN7android2nn13maxPoolQuant8EPKhRKNS0_5ShapeEiiiiiiiiiPhS5_Pv
_ZN7android2nn11convPrepareERKNS0_5ShapeES3_S3_iiiiiiPS1_Ri
_ZN7android2nn11convFloat32EPKfRKNS0_5ShapeES2_S5_S2_S5_iiiiiiiPfS5_Pv
_ZN7android2nn10convQuant8EPKhRKNS0_5ShapeES2_S5_PKiS5_iiiiiiiPhS5_Pv
_ZN7android2nn20concatenationPrepareERKSt6vectorINS0_5ShapeESaIS2_EEiPS2_
_ZN7android2nn20concatenationFloat32ERKSt6vectorIPKfSaIS3_EERKS1_INS0_5ShapeESaIS8_EEiPfRKS8_
_ZN7android2nn19concatenationQuant8ERKSt6vectorIPKhSaIS3_EERKS1_INS0_5ShapeESaIS8_EEiPhRKS8_

